; ModuleID = '56/9.c'
source_filename = "56/9.c"
target datalayout = "e-m:e-p270:32:32-p271:32:32-p272:64:64-i64:64-f80:128-n8:16:32:64-S128"
target triple = "x86_64-pc-linux-gnu"

@.str = private unnamed_addr constant [3 x i8] c"%d\00", align 1

; Function Attrs: noinline nounwind uwtable
define dso_local i32 @main() #0 {
  %1 = alloca i32, align 4
  %2 = alloca i32, align 4
  %3 = alloca i32, align 4
  %4 = alloca i32, align 4
  store i32 0, i32* %1, align 4
  store i32 5, i32* %4, align 4
  %5 = call i32 (i8*, ...) @__isoc99_scanf(i8* getelementptr inbounds ([3 x i8], [3 x i8]* @.str, i64 0, i64 0), i32* %2)
  %6 = load i32, i32* %2, align 4
  %7 = icmp ne i32 %6, 0
  br i1 %7, label %11, label %8

8:                                                ; preds = %0
  %9 = load i32, i32* %2, align 4
  %10 = call i32 (i8*, ...) @printf(i8* getelementptr inbounds ([3 x i8], [3 x i8]* @.str, i64 0, i64 0), i32 %9)
  store i32 0, i32* %1, align 4
  br label %22

11:                                               ; preds = %0
  br label %12

12:                                               ; preds = %15, %11
  %13 = load i32, i32* %2, align 4
  %14 = icmp ne i32 %13, 0
  br i1 %14, label %15, label %21

15:                                               ; preds = %12
  %16 = load i32, i32* %2, align 4
  %17 = srem i32 %16, 10
  %18 = call i32 (i8*, ...) @printf(i8* getelementptr inbounds ([3 x i8], [3 x i8]* @.str, i64 0, i64 0), i32 %17)
  %19 = load i32, i32* %2, align 4
  %20 = sdiv i32 %19, 10
  store i32 %20, i32* %2, align 4
  br label %12

21:                                               ; preds = %12
  store i32 0, i32* %1, align 4
  br label %22

22:                                               ; preds = %21, %8
  %23 = load i32, i32* %1, align 4
  ret i32 %23
}

declare dso_local i32 @__isoc99_scanf(i8*, ...) #1

declare dso_local i32 @printf(i8*, ...) #1


!llvm.module.flags = !{!0}
!llvm.ident = !{!1}

!0 = !{i32 1, !"wchar_size", i32 4}
!1 = !{!"clang version 10.0.0-4ubuntu1 "}
